target datalayout = "e-m:e-p270:32:32-p271:32:32-p272:64:64-i64:64-i128:128-f80:128-n8:16:32:64-S128"
target triple = "x86_64-pc-linux-gnu"

%"class.icu_77::Quantifier" = type { %"class.icu_77::UnicodeFunctor", %"class.icu_77::UnicodeMatcher", ptr, i32, i32 }
%"class.icu_77::UnicodeFunctor" = type { %"class.icu_77::UObject" }
%"class.icu_77::UObject" = type { ptr }
%"class.icu_77::UnicodeMatcher" = type { ptr }

; Function Attrs: mustprogress uwtable
define void @_ZNK6icu_7710Quantifier13addMatchSetToERNS_10UnicodeSetE(ptr noundef nonnull align 8 dereferenceable(32) %0, ptr noundef nonnull align 1 %1) unnamed_addr #1 align 2 {
  %3 = alloca ptr, align 8
  %4 = alloca ptr, align 8
  store ptr %0, ptr %3, align 8, !tbaa !23
  store ptr %1, ptr %4, align 8, !tbaa !49
  %5 = load ptr, ptr %3, align 8
  %6 = getelementptr inbounds nuw %"class.icu_77::Quantifier", ptr %5, i32 0, i32 4
  %7 = load i32, ptr %6, align 4, !tbaa !35
  %8 = icmp ugt i32 %7, 0
  br i1 %8, label %9, label %20

9:                                                ; preds = %2
  %10 = getelementptr inbounds nuw %"class.icu_77::Quantifier", ptr %5, i32 0, i32 2
  %11 = load ptr, ptr %10, align 8, !tbaa !29
  %12 = load ptr, ptr %11, align 8, !tbaa !27
  %13 = getelementptr inbounds ptr, ptr %12, i64 4
  %14 = load ptr, ptr %13, align 8
  %15 = call noundef ptr %14(ptr noundef nonnull align 8 dereferenceable(8) %11)
  %16 = load ptr, ptr %4, align 8, !tbaa !49
  %17 = load ptr, ptr %15, align 8, !tbaa !27
  %18 = getelementptr inbounds ptr, ptr %17, i64 5
  %19 = load ptr, ptr %18, align 8
  call void %19(ptr noundef nonnull align 8 dereferenceable(8) %15, ptr noundef nonnull align 1 %16)
  br label %20

20:                                               ; preds = %9, %2
  ret void
}

; Function Attrs: uwtable
define void @_ZThn8_NK6icu_7710Quantifier13addMatchSetToERNS_10UnicodeSetE(ptr noundef %0, ptr noundef nonnull align 1 %1) unnamed_addr #11 align 2 {
  %3 = alloca ptr, align 8
  %4 = alloca ptr, align 8
  store ptr %0, ptr %3, align 8, !tbaa !23
  store ptr %1, ptr %4, align 8, !tbaa !49
  %5 = load ptr, ptr %3, align 8
  %6 = getelementptr inbounds i8, ptr %5, i64 -8
  %7 = load ptr, ptr %4, align 8
  tail call void @_ZNK6icu_7710Quantifier13addMatchSetToERNS_10UnicodeSetE(ptr noundef nonnull align 8 dereferenceable(32) %6, ptr noundef nonnull align 1 %7)
  ret void
}