; Function Attrs: uwtable
define void @_ZThn8_NK6icu_7710Quantifier13addMatchSetToERNS_10UnicodeSetE(ptr noundef readonly captures(none) %0, ptr noundef nonnull align 1 %1) unnamed_addr #13 align 2 {
  %3 = getelementptr inbounds nuw i8, ptr %0, i64 20
  %4 = load i32, ptr %3, align 4, !tbaa !24
  %.not.i = icmp eq i32 %4, 0
  br i1 %.not.i, label %_ZNK6icu_7710Quantifier13addMatchSetToERNS_10UnicodeSetE.exit, label %5

5:                                                ; preds = %2
  %6 = getelementptr inbounds nuw i8, ptr %0, i64 8
  %7 = load ptr, ptr %6, align 8, !tbaa !17
  %8 = load ptr, ptr %7, align 8, !tbaa !15
  %9 = getelementptr inbounds nuw i8, ptr %8, i64 32
  %10 = load ptr, ptr %9, align 8
  %11 = tail call noundef ptr %10(ptr noundef nonnull align 8 dereferenceable(8) %7)
  %12 = load ptr, ptr %11, align 8, !tbaa !15
  %13 = getelementptr inbounds nuw i8, ptr %12, i64 40
  %14 = load ptr, ptr %13, align 8
  tail call void %14(ptr noundef nonnull align 8 dereferenceable(8) %11, ptr noundef nonnull align 1 %1)
  br label %_ZNK6icu_7710Quantifier13addMatchSetToERNS_10UnicodeSetE.exit

_ZNK6icu_7710Quantifier13addMatchSetToERNS_10UnicodeSetE.exit: ; preds = %2, %5
  ret void
}